; Function Attrs: mustprogress nofree norecurse nosync nounwind willreturn memory(read, inaccessiblemem: none) uwtable
define float @Abc_NodeReadRequiredWorst(ptr noundef readonly captures(none) %0) local_unnamed_addr #1 {
  %.val.i = load ptr, ptr %0, align 8
  %2 = getelementptr i8, ptr %0, i64 16
  %.val1.i = load i32, ptr %2, align 8
  %3 = getelementptr i8, ptr %.val.i, i64 264
  %.val.val.i = load ptr, ptr %3, align 8
  %4 = getelementptr i8, ptr %.val.val.i, i64 24
  %.val.val.val.i = load ptr, ptr %4, align 8
  %5 = getelementptr i8, ptr %.val.val.val.i, i64 8
  %.val.val.val.val.i = load ptr, ptr %5, align 8
  %6 = sext i32 %.val1.i to i64
  %7 = getelementptr inbounds ptr, ptr %.val.val.val.val.i, i64 %6
  %8 = load ptr, ptr %7, align 8
  %9 = load float, ptr %8, align 4
  %10 = getelementptr inbounds nuw i8, ptr %8, i64 4
  %11 = load float, ptr %10, align 4
  %12 = fcmp olt float %9, %11
  %13 = select i1 %12, float %9, float %11
  ret float %13
}